; Function Attrs: null_pointer_is_valid sspstrong uwtable
define internal noundef i32 @cigi4_add_environmental_conditions_request(ptr noundef %0, ptr readnone captures(none) %1, ptr noundef %2, ptr readnone captures(none) %3) #0 {
  %5 = load i32, ptr @hf_cigi3_environmental_conditions_request_type, align 4
  %.b23 = load i1, ptr @cigi_byte_order, align 4
  %6 = select i1 %.b23, i32 -2147483648, i32 0
  %7 = tail call ptr @proto_tree_add_item(ptr noundef %2, i32 noundef %5, ptr noundef %0, i32 noundef 0, i32 noundef 1, i32 noundef %6)
  %8 = load i32, ptr @hf_cigi3_environmental_conditions_request_id, align 4
  %.b22 = load i1, ptr @cigi_byte_order, align 4
  %9 = select i1 %.b22, i32 -2147483648, i32 0
  %10 = tail call ptr @proto_tree_add_item(ptr noundef %2, i32 noundef %8, ptr noundef %0, i32 noundef 1, i32 noundef 1, i32 noundef %9)
  %11 = load i32, ptr @hf_cigi3_environmental_conditions_request_lat, align 4
  %.b21 = load i1, ptr @cigi_byte_order, align 4
  %12 = select i1 %.b21, i32 -2147483648, i32 0
  %13 = tail call ptr @proto_tree_add_item(ptr noundef %2, i32 noundef %11, ptr noundef %0, i32 noundef 4, i32 noundef 8, i32 noundef %12)
  %14 = load i32, ptr @hf_cigi3_environmental_conditions_request_lon, align 4
  %.b20 = load i1, ptr @cigi_byte_order, align 4
  %15 = select i1 %.b20, i32 -2147483648, i32 0
  %16 = tail call ptr @proto_tree_add_item(ptr noundef %2, i32 noundef %14, ptr noundef %0, i32 noundef 12, i32 noundef 8, i32 noundef %15)
  %17 = load i32, ptr @hf_cigi3_environmental_conditions_request_alt, align 4
  %.b = load i1, ptr @cigi_byte_order, align 4
  %18 = select i1 %.b, i32 -2147483648, i32 0
  %19 = tail call ptr @proto_tree_add_item(ptr noundef %2, i32 noundef %17, ptr noundef %0, i32 noundef 20, i32 noundef 8, i32 noundef %18)
  ret i32 28
}